; Function Attrs: mustprogress nofree norecurse nosync nounwind willreturn memory(argmem: read) uwtable
define dso_local noundef range(i32 0, 3) i32 @_ZN5clang12ConstantExpr14getStorageKindERKNS_7APValueE(ptr nocapture noundef nonnull readonly align 8 dereferenceable(72) %0) local_unnamed_addr #6 align 2 {
  %2 = load i32, ptr %0, align 8
  switch i32 %2, label %7 [
    i32 0, label %8
    i32 1, label %8
    i32 2, label %3
  ]

3:                                                ; preds = %1
  %4 = getelementptr inbounds i8, ptr %0, i64 16
  %5 = load i32, ptr %4, align 8
  %6 = icmp ugt i32 %5, 64
  br i1 %6, label %7, label %8

7:                                                ; preds = %3, %1
  br label %8

8:                                                ; preds = %3, %1, %1, %7
  %.0 = phi i32 [ 2, %7 ], [ 0, %1 ], [ 0, %1 ], [ 1, %3 ]
  ret i32 %.0
}